Certificate:
    Data:
        Version: 3 (0x2)
        Serial Number: 1 (0x1)
        Signature Algorithm: sha256WithRSAEncryption
        Issuer: C=CN, ST=Shanghai, L=Shanghai, O=Shanghai Tercel Info Tech., Ltd., OU=IT, CN=Tercel Root CA/emailAddress=info@tcxa.com.cn
        Validity
            Not Before: Dec  2 08:38:11 2019 GMT
            Not After : Dec  1 08:38:11 2021 GMT
        Subject: C=CN, ST=Shanghai, L=Shanghai, O=TCXA, OU=WAF.DEV, CN=WAF/emailAddress=support@tcxa.com.cn
        Subject Public Key Info:
            Public Key Algorithm: rsaEncryption
                RSA Public-Key: (4096 bit)
                Modulus:
                    00:b6:8a:44:dc:2a:56:49:4f:c6:f4:6a:a2:b3:96:
                    a6:eb:13:06:cc:cb:bb:4a:0e:f3:1c:3b:c4:ef:a1:
                    ab:55:3e:84:3a:6a:e1:7e:ed:a0:52:69:8f:70:df:
                    91:50:a0:41:ae:a7:fa:43:fb:3b:b6:15:d9:31:2e:
                    f9:6c:d9:09:88:43:c8:6d:ce:6c:23:02:68:56:f4:
                    91:d9:25:c7:7d:a8:18:c5:54:4a:09:dc:de:bc:8c:
                    99:89:20:12:1b:20:3a:9a:c8:4b:1c:b2:a6:89:ec:
                    e0:46:07:bc:72:3b:65:1e:14:95:9a:36:9d:75:a5:
                    ca:81:a1:59:72:ed:12:39:81:47:4c:11:b5:74:d2:
                    7c:bf:37:cd:cb:2e:e6:86:17:5b:38:78:9a:54:f9:
                    8c:9e:7e:ab:5b:11:08:b4:59:93:f2:6a:b3:01:e2:
                    25:89:f4:be:49:b2:b9:92:f2:95:50:d2:88:e2:fb:
                    39:0e:77:0e:4a:b4:96:3c:3c:db:db:7a:a4:e5:0d:
                    4e:0f:95:e7:95:ee:d9:10:7e:d0:3e:69:95:ad:52:
                    7b:e0:b8:15:17:ec:56:ef:45:a0:8c:43:95:9a:39:
                    37:bb:58:db:68:30:61:b6:38:1a:2f:8d:7a:02:68:
                    3a:c9:42:4d:3c:e0:d6:bf:91:e1:ee:e9:d4:a8:e7:
                    c4:54:73:a0:91:74:c6:a9:a8:49:db:de:6f:5c:d6:
                    a1:2b:2b:35:33:f2:06:96:cc:46:97:fc:bf:39:a4:
                    14:65:62:52:be:41:42:fc:09:55:ab:03:63:7c:cb:
                    32:58:bb:23:2e:5f:51:bc:82:2b:06:ce:fe:ab:0a:
                    10:3f:de:f4:26:00:3c:f9:5f:27:5a:f1:93:57:27:
                    50:56:02:c5:6e:42:17:66:57:4a:25:2f:0f:be:04:
                    8b:53:66:e5:60:d2:da:ce:ea:5e:10:5e:45:a7:24:
                    38:4a:8e:c7:86:9c:f2:a4:2d:77:38:ec:d8:04:0b:
                    42:4b:c0:38:9d:56:58:2c:39:bc:eb:d7:01:5e:52:
                    fb:33:9b:e0:a3:f2:97:be:35:38:08:ad:99:d5:e5:
                    55:61:cb:2f:ef:19:3f:66:9d:c4:91:8a:8f:35:e7:
                    4f:d8:29:2f:40:74:fe:5e:76:f9:c3:5d:a9:97:52:
                    a6:78:f3:52:99:ec:3e:c2:c8:b4:1b:9d:1b:3f:37:
                    aa:c8:0b:9c:52:da:e5:b8:0e:61:2e:42:90:d7:b1:
                    a2:e2:6e:1a:15:5f:1b:02:13:9b:13:a4:ed:4f:06:
                    81:b3:bb:92:03:de:1d:72:9b:34:4e:10:cf:1f:73:
                    55:74:09:64:6a:ac:cf:3f:4f:fe:1c:e9:91:ef:1d:
                    69:a8:6b
                Exponent: 65537 (0x10001)
        X509v3 extensions:
            X509v3 Basic Constraints: 
                CA:FALSE
            Netscape Comment: 
                OpenSSL Generated Certificate
            X509v3 Subject Key Identifier: 
                E5:8B:7A:83:D6:59:48:CE:1C:4F:0F:CB:1C:FD:9F:29:34:0C:DE:CE
            X509v3 Authority Key Identifier: 
                keyid:F1:3C:42:E1:B8:19:06:95:25:A7:FB:52:E4:4C:FF:5A:AF:68:6B:9D

    Signature Algorithm: sha256WithRSAEncryption
         6f:f4:5b:63:fd:c5:a2:f6:71:e6:e8:71:a2:99:91:c1:e1:b4:
         04:34:08:0c:a2:b3:64:25:ac:a2:e1:4f:4c:75:f4:a2:a6:41:
         e5:fb:fd:b7:b7:ff:f9:46:b6:86:1d:4e:55:71:97:9d:1c:f1:
         4b:5b:3f:1f:e3:2e:42:7b:90:42:63:4a:23:07:c5:1f:94:59:
         0b:f2:52:76:e3:63:9d:23:af:e4:1f:27:2b:ab:33:cb:25:be:
         2c:4d:77:72:98:d9:38:ad:31:3d:a4:75:80:b2:42:d5:99:b1:
         a0:35:c2:0b:e9:66:9d:ea:3c:2e:2a:98:8b:d1:2b:82:fb:30:
         6c:4a:ca:58:bb:e3:cd:ef:10:66:77:01:4d:86:fe:c7:34:c4:
         35:4f:f9:c1:ee:07:58:b5:2e:08:bd:6e:20:d2:83:8c:15:62:
         b6:af:2d:87:cc:6a:a5:59:35:84:1c:9b:05:2e:ba:ad:82:1d:
         37:e8:b8:34:5c:38:3b:38:d1:91:f2:47:1b:15:60:ff:56:5d:
         35:1e:b3:1b:f5:fe:dc:26:a1:fb:54:5e:52:7b:f3:6c:95:7c:
         ba:0e:dc:17:93:2c:e1:90:e6:5c:e7:8d:bd:8c:88:e6:2a:80:
         6b:7f:5b:fd:cf:28:9f:8f:c9:be:3b:09:c5:d7:0f:ad:d4:24:
         e6:70:1a:c1:2c:ce:91:5c:07:d7:89:00:e3:3b:f2:e2:71:b9:
         b9:cb:21:ab:18:aa:aa:3c:f4:1b:b9:47:db:0a:f4:c9:97:1e:
         25:7d:0b:41:11:fc:66:1a:b5:5d:9d:29:a0:ca:82:24:f6:c4:
         19:8d:5c:ef:af:fb:66:94:a0:86:f3:04:4c:75:5e:b4:30:f4:
         c2:52:5b:13:a3:63:ad:3f:c4:e6:c8:39:d0:2f:e0:03:83:bc:
         c4:2b:51:3c:d5:e2:80:4a:3c:6e:80:1f:56:c3:75:85:e8:8c:
         95:3a:77:8d:97:35:f5:07:b4:d7:d4:7d:ab:63:43:72:23:6b:
         d8:04:c1:d4:82:d5:39:09:54:e4:24:dc:e5:91:71:38:be:b0:
         73:35:31:52:6c:84:a1:1a:0e:fa:fc:bb:cd:a3:f3:b3:98:f3:
         e2:3c:f2:8e:0b:08:ed:93:8e:41:0d:58:86:4f:42:10:d5:af:
         96:34:43:35:d2:d6:f2:85:8a:6e:df:6b:61:14:5b:bc:5c:69:
         49:4f:6d:6c:79:72:d2:aa:8f:3d:29:69:e3:79:7a:27:48:82:
         6a:c3:7e:91:61:ec:fc:5a:a4:56:e7:1c:d2:39:52:ea:fa:62:
         48:77:4c:25:a3:b6:cf:79:61:fb:13:32:6f:d0:24:b7:cb:b2:
         03:0b:ce:0d:58:45:10:65
-----BEGIN CERTIFICATE-----
MIIGIzCCBAugAwIBAgIBATANBgkqhkiG9w0BAQsFADCBpTELMAkGA1UEBhMCQ04x
ETAPBgNVBAgMCFNoYW5naGFpMREwDwYDVQQHDAhTaGFuZ2hhaTEpMCcGA1UECgwg
U2hhbmdoYWkgVGVyY2VsIEluZm8gVGVjaC4sIEx0ZC4xCzAJBgNVBAsMAklUMRcw
FQYDVQQDDA5UZXJjZWwgUm9vdCBDQTEfMB0GCSqGSIb3DQEJARYQaW5mb0B0Y3hh
LmNvbS5jbjAeFw0xOTEyMDIwODM4MTFaFw0yMTEyMDEwODM4MTFaMIGGMQswCQYD
VQQGEwJDTjERMA8GA1UECAwIU2hhbmdoYWkxETAPBgNVBAcMCFNoYW5naGFpMQ0w
CwYDVQQKDARUQ1hBMRAwDgYDVQQLDAdXQUYuREVWMQwwCgYDVQQDDANXQUYxIjAg
BgkqhkiG9w0BCQEWE3N1cHBvcnRAdGN4YS5jb20uY24wggIiMA0GCSqGSIb3DQEB
AQUAA4ICDwAwggIKAoICAQC2ikTcKlZJT8b0aqKzlqbrEwbMy7tKDvMcO8TvoatV
PoQ6auF+7aBSaY9w35FQoEGup/pD+zu2FdkxLvls2QmIQ8htzmwjAmhW9JHZJcd9
qBjFVEoJ3N68jJmJIBIbIDqayEscsqaJ7OBGB7xyO2UeFJWaNp11pcqBoVly7RI5
gUdMEbV00ny/N83LLuaGF1s4eJpU+YyefqtbEQi0WZPyarMB4iWJ9L5JsrmS8pVQ
0oji+zkOdw5KtJY8PNvbeqTlDU4PleeV7tkQftA+aZWtUnvguBUX7FbvRaCMQ5Wa
OTe7WNtoMGG2OBovjXoCaDrJQk084Na/keHu6dSo58RUc6CRdMapqEnb3m9c1qEr
KzUz8gaWzEaX/L85pBRlYlK+QUL8CVWrA2N8yzJYuyMuX1G8gisGzv6rChA/3vQm
ADz5Xyda8ZNXJ1BWAsVuQhdmV0olLw++BItTZuVg0trO6l4QXkWnJDhKjseGnPKk
LXc47NgEC0JLwDidVlgsObzr1wFeUvszm+Cj8pe+NTgIrZnV5VVhyy/vGT9mncSR
io8150/YKS9AdP5edvnDXamXUqZ481KZ7D7CyLQbnRs/N6rIC5xS2uW4DmEuQpDX
saLibhoVXxsCE5sTpO1PBoGzu5ID3h1ymzROEM8fc1V0CWRqrM8/T/4c6ZHvHWmo
awIDAQABo3sweTAJBgNVHRMEAjAAMCwGCWCGSAGG+EIBDQQfFh1PcGVuU1NMIEdl
bmVyYXRlZCBDZXJ0aWZpY2F0ZTAdBgNVHQ4EFgQU5Yt6g9ZZSM4cTw/LHP2fKTQM
3s4wHwYDVR0jBBgwFoAU8TxC4bgZBpUlp/tS5Ez/Wq9oa50wDQYJKoZIhvcNAQEL
BQADggIBAG/0W2P9xaL2cebocaKZkcHhtAQ0CAyis2QlrKLhT0x19KKmQeX7/be3
//lGtoYdTlVxl50c8UtbPx/jLkJ7kEJjSiMHxR+UWQvyUnbjY50jr+QfJyurM8sl
vixNd3KY2TitMT2kdYCyQtWZsaA1wgvpZp3qPC4qmIvRK4L7MGxKyli7483vEGZ3
AU2G/sc0xDVP+cHuB1i1Lgi9biDSg4wVYravLYfMaqVZNYQcmwUuuq2CHTfouDRc
ODs40ZHyRxsVYP9WXTUesxv1/twmoftUXlJ782yVfLoO3BeTLOGQ5lznjb2MiOYq
gGt/W/3PKJ+Pyb47CcXXD63UJOZwGsEszpFcB9eJAOM78uJxubnLIasYqqo89Bu5
R9sK9MmXHiV9C0ER/GYatV2dKaDKgiT2xBmNXO+v+2aUoIbzBEx1XrQw9MJSWxOj
Y60/xObIOdAv4AODvMQrUTzV4oBKPG6AH1bDdYXojJU6d42XNfUHtNfUfatjQ3Ij
a9gEwdSC1TkJVOQk3OWRcTi+sHM1MVJshKEaDvr8u82j87OY8+I88o4LCO2TjkEN
WIZPQhDVr5Y0QzXS1vKFim7fa2EUW7xcaUlPbWx5ctKqjz0paeN5eidIgmrDfpFh
7PxapFbnHNI5Uur6Ykh3TCWjts95YfsTMm/QJLfLsgMLzg1YRRBl
-----END CERTIFICATE-----
